target datalayout = "e-m:e-p270:32:32-p271:32:32-p272:64:64-i64:64-i128:128-f80:128-n8:16:32:64-S128"
target triple = "x86_64-pc-linux-gnu"

%struct.OnigCalloutArgsStruct = type { i32, i32, i32, ptr, ptr, ptr, ptr, ptr, ptr, i64, ptr, ptr, ptr, ptr, ptr }

; Function Attrs: nounwind uwtable
define dso_local i32 @onig_get_used_stack_size_in_callout(ptr noundef %0, ptr noundef %1, ptr noundef %2) #0 {
  %4 = alloca ptr, align 8
  %5 = alloca ptr, align 8
  %6 = alloca ptr, align 8
  %7 = alloca i32, align 4
  store ptr %0, ptr %4, align 8, !tbaa !45
  store ptr %1, ptr %5, align 8, !tbaa !66
  store ptr %2, ptr %6, align 8, !tbaa !66
  call void @llvm.lifetime.start.p0(i64 4, ptr %7) #9
  %8 = load ptr, ptr %4, align 8, !tbaa !45
  %9 = getelementptr inbounds nuw %struct.OnigCalloutArgsStruct, ptr %8, i32 0, i32 12
  %10 = load ptr, ptr %9, align 8, !tbaa !170
  %11 = load ptr, ptr %4, align 8, !tbaa !45
  %12 = getelementptr inbounds nuw %struct.OnigCalloutArgsStruct, ptr %11, i32 0, i32 11
  %13 = load ptr, ptr %12, align 8, !tbaa !169
  %14 = ptrtoint ptr %10 to i64
  %15 = ptrtoint ptr %13 to i64
  %16 = sub i64 %14, %15
  %17 = sdiv exact i64 %16, 32
  %18 = trunc i64 %17 to i32
  store i32 %18, ptr %7, align 4, !tbaa !9
  %19 = load ptr, ptr %5, align 8, !tbaa !66
  %20 = icmp ne ptr %19, null
  br i1 %20, label %21, label %24

21:                                               ; preds = %3
  %22 = load i32, ptr %7, align 4, !tbaa !9
  %23 = load ptr, ptr %5, align 8, !tbaa !66
  store i32 %22, ptr %23, align 4, !tbaa !9
  br label %24

24:                                               ; preds = %21, %3
  %25 = load ptr, ptr %6, align 8, !tbaa !66
  %26 = icmp ne ptr %25, null
  br i1 %26, label %27, label %33

27:                                               ; preds = %24
  %28 = load i32, ptr %7, align 4, !tbaa !9
  %29 = sext i32 %28 to i64
  %30 = mul i64 %29, 32
  %31 = trunc i64 %30 to i32
  %32 = load ptr, ptr %6, align 8, !tbaa !66
  store i32 %31, ptr %32, align 4, !tbaa !9
  br label %33

33:                                               ; preds = %27, %24
  call void @llvm.lifetime.end.p0(i64 4, ptr %7) #9
  ret i32 0
}