; Function Attrs: mustprogress nofree norecurse nosync nounwind willreturn memory(argmem: readwrite) uwtable
define dso_local noundef i32 @onig_get_used_stack_size_in_callout(ptr noundef readonly captures(none) %0, ptr noundef writeonly captures(address_is_null) %1, ptr noundef writeonly captures(address_is_null) %2) local_unnamed_addr #19 {
  %4 = getelementptr inbounds nuw i8, ptr %0, i64 88
  %5 = load ptr, ptr %4, align 8, !tbaa !165
  %6 = getelementptr inbounds nuw i8, ptr %0, i64 80
  %7 = load ptr, ptr %6, align 8, !tbaa !164
  %8 = ptrtoint ptr %5 to i64
  %9 = ptrtoint ptr %7 to i64
  %10 = sub i64 %8, %9
  %.not = icmp eq ptr %1, null
  br i1 %.not, label %14, label %11

11:                                               ; preds = %3
  %12 = lshr exact i64 %10, 5
  %13 = trunc i64 %12 to i32
  store i32 %13, ptr %1, align 4, !tbaa !24
  br label %14

14:                                               ; preds = %11, %3
  %.not8 = icmp eq ptr %2, null
  br i1 %.not8, label %18, label %15

15:                                               ; preds = %14
  %16 = trunc i64 %10 to i32
  %17 = and i32 %16, -32
  store i32 %17, ptr %2, align 4, !tbaa !24
  br label %18

18:                                               ; preds = %15, %14
  ret i32 0
}